; Function Attrs: mustprogress uwtable
define noalias ptr @lean_io_get_task_state(ptr noundef %0, ptr noundef readnone captures(none) %1) local_unnamed_addr #0 {
  %3 = tail call zeroext i8 @lean_io_get_task_state_core(ptr noundef %0)
  tail call void @lean_inc_heartbeat()
  %4 = tail call noalias ptr @mi_malloc_small(i64 noundef 24) #27
  %5 = icmp eq ptr %4, null
  br i1 %5, label %6, label %_ZN4lean15io_result_mk_okEP11lean_object.exit

6:                                                ; preds = %2
  tail call void @lean_internal_panic_out_of_memory() #28
  unreachable

_ZN4lean15io_result_mk_okEP11lean_object.exit:    ; preds = %2
  %7 = zext i8 %3 to i64
  %8 = shl nuw nsw i64 %7, 1
  %9 = or disjoint i64 %8, 1
  %10 = inttoptr i64 %9 to ptr
  %11 = getelementptr inbounds nuw i8, ptr %4, i64 4
  store i32 1, ptr %4, align 4, !tbaa !7
  store i32 131096, ptr %11, align 4
  %12 = getelementptr inbounds nuw i8, ptr %4, i64 8
  store ptr %10, ptr %12, align 8, !tbaa !3
  %13 = getelementptr inbounds nuw i8, ptr %4, i64 16
  store ptr inttoptr (i64 1 to ptr), ptr %13, align 8, !tbaa !3
  ret ptr %4
}